target datalayout = "e-m:e-p270:32:32-p271:32:32-p272:64:64-i64:64-i128:128-f80:128-n8:16:32:64-S128"
target triple = "x86_64-pc-linux-gnu"

%"class.pxrInternal_v0_24__pxrReserved__::GfMatrix4f" = type { %"class.pxrInternal_v0_24__pxrReserved__::GfMatrixData" }
%"class.pxrInternal_v0_24__pxrReserved__::GfMatrixData" = type { [16 x float] }

; Function Attrs: mustprogress nounwind uwtable
define linkonce_odr noundef ptr @_ZNK32pxrInternal_v0_24__pxrReserved__12GfMatrixDataIfLi4ELi4EEixEi(ptr noundef nonnull align 4 dereferenceable(64) %0, i32 noundef %1) #2 comdat align 2 {
  %3 = alloca ptr, align 8
  %4 = alloca i32, align 4
  store ptr %0, ptr %3, align 8
  store i32 %1, ptr %4, align 4
  %5 = load ptr, ptr %3, align 8
  %6 = getelementptr inbounds nuw %"class.pxrInternal_v0_24__pxrReserved__::GfMatrixData", ptr %5, i32 0, i32 0
  %7 = getelementptr inbounds [16 x float], ptr %6, i64 0, i64 0
  %8 = load i32, ptr %4, align 4
  %9 = mul nsw i32 %8, 4
  %10 = sext i32 %9 to i64
  %11 = getelementptr inbounds float, ptr %7, i64 %10
  ret ptr %11
}

; Function Attrs: mustprogress uwtable
define noundef ptr @_ZNK32pxrInternal_v0_24__pxrReserved__10GfMatrix4f3GetEPA4_f(ptr noundef nonnull align 4 dereferenceable(64) %0, ptr noundef %1) #0 align 2 {
  %3 = alloca ptr, align 8
  %4 = alloca ptr, align 8
  store ptr %0, ptr %3, align 8
  store ptr %1, ptr %4, align 8
  %5 = load ptr, ptr %3, align 8
  %6 = getelementptr inbounds nuw %"class.pxrInternal_v0_24__pxrReserved__::GfMatrix4f", ptr %5, i32 0, i32 0
  %7 = call noundef ptr @_ZNK32pxrInternal_v0_24__pxrReserved__12GfMatrixDataIfLi4ELi4EEixEi(ptr noundef nonnull align 4 dereferenceable(64) %6, i32 noundef 0)
  %8 = getelementptr inbounds float, ptr %7, i64 0
  %9 = load float, ptr %8, align 4
  %10 = load ptr, ptr %4, align 8
  %11 = getelementptr inbounds [4 x float], ptr %10, i64 0
  %12 = getelementptr inbounds [4 x float], ptr %11, i64 0, i64 0
  store float %9, ptr %12, align 4
  %13 = getelementptr inbounds nuw %"class.pxrInternal_v0_24__pxrReserved__::GfMatrix4f", ptr %5, i32 0, i32 0
  %14 = call noundef ptr @_ZNK32pxrInternal_v0_24__pxrReserved__12GfMatrixDataIfLi4ELi4EEixEi(ptr noundef nonnull align 4 dereferenceable(64) %13, i32 noundef 0)
  %15 = getelementptr inbounds float, ptr %14, i64 1
  %16 = load float, ptr %15, align 4
  %17 = load ptr, ptr %4, align 8
  %18 = getelementptr inbounds [4 x float], ptr %17, i64 0
  %19 = getelementptr inbounds [4 x float], ptr %18, i64 0, i64 1
  store float %16, ptr %19, align 4
  %20 = getelementptr inbounds nuw %"class.pxrInternal_v0_24__pxrReserved__::GfMatrix4f", ptr %5, i32 0, i32 0
  %21 = call noundef ptr @_ZNK32pxrInternal_v0_24__pxrReserved__12GfMatrixDataIfLi4ELi4EEixEi(ptr noundef nonnull align 4 dereferenceable(64) %20, i32 noundef 0)
  %22 = getelementptr inbounds float, ptr %21, i64 2
  %23 = load float, ptr %22, align 4
  %24 = load ptr, ptr %4, align 8
  %25 = getelementptr inbounds [4 x float], ptr %24, i64 0
  %26 = getelementptr inbounds [4 x float], ptr %25, i64 0, i64 2
  store float %23, ptr %26, align 4
  %27 = getelementptr inbounds nuw %"class.pxrInternal_v0_24__pxrReserved__::GfMatrix4f", ptr %5, i32 0, i32 0
  %28 = call noundef ptr @_ZNK32pxrInternal_v0_24__pxrReserved__12GfMatrixDataIfLi4ELi4EEixEi(ptr noundef nonnull align 4 dereferenceable(64) %27, i32 noundef 0)
  %29 = getelementptr inbounds float, ptr %28, i64 3
  %30 = load float, ptr %29, align 4
  %31 = load ptr, ptr %4, align 8
  %32 = getelementptr inbounds [4 x float], ptr %31, i64 0
  %33 = getelementptr inbounds [4 x float], ptr %32, i64 0, i64 3
  store float %30, ptr %33, align 4
  %34 = getelementptr inbounds nuw %"class.pxrInternal_v0_24__pxrReserved__::GfMatrix4f", ptr %5, i32 0, i32 0
  %35 = call noundef ptr @_ZNK32pxrInternal_v0_24__pxrReserved__12GfMatrixDataIfLi4ELi4EEixEi(ptr noundef nonnull align 4 dereferenceable(64) %34, i32 noundef 1)
  %36 = getelementptr inbounds float, ptr %35, i64 0
  %37 = load float, ptr %36, align 4
  %38 = load ptr, ptr %4, align 8
  %39 = getelementptr inbounds [4 x float], ptr %38, i64 1
  %40 = getelementptr inbounds [4 x float], ptr %39, i64 0, i64 0
  store float %37, ptr %40, align 4
  %41 = getelementptr inbounds nuw %"class.pxrInternal_v0_24__pxrReserved__::GfMatrix4f", ptr %5, i32 0, i32 0
  %42 = call noundef ptr @_ZNK32pxrInternal_v0_24__pxrReserved__12GfMatrixDataIfLi4ELi4EEixEi(ptr noundef nonnull align 4 dereferenceable(64) %41, i32 noundef 1)
  %43 = getelementptr inbounds float, ptr %42, i64 1
  %44 = load float, ptr %43, align 4
  %45 = load ptr, ptr %4, align 8
  %46 = getelementptr inbounds [4 x float], ptr %45, i64 1
  %47 = getelementptr inbounds [4 x float], ptr %46, i64 0, i64 1
  store float %44, ptr %47, align 4
  %48 = getelementptr inbounds nuw %"class.pxrInternal_v0_24__pxrReserved__::GfMatrix4f", ptr %5, i32 0, i32 0
  %49 = call noundef ptr @_ZNK32pxrInternal_v0_24__pxrReserved__12GfMatrixDataIfLi4ELi4EEixEi(ptr noundef nonnull align 4 dereferenceable(64) %48, i32 noundef 1)
  %50 = getelementptr inbounds float, ptr %49, i64 2
  %51 = load float, ptr %50, align 4
  %52 = load ptr, ptr %4, align 8
  %53 = getelementptr inbounds [4 x float], ptr %52, i64 1
  %54 = getelementptr inbounds [4 x float], ptr %53, i64 0, i64 2
  store float %51, ptr %54, align 4
  %55 = getelementptr inbounds nuw %"class.pxrInternal_v0_24__pxrReserved__::GfMatrix4f", ptr %5, i32 0, i32 0
  %56 = call noundef ptr @_ZNK32pxrInternal_v0_24__pxrReserved__12GfMatrixDataIfLi4ELi4EEixEi(ptr noundef nonnull align 4 dereferenceable(64) %55, i32 noundef 1)
  %57 = getelementptr inbounds float, ptr %56, i64 3
  %58 = load float, ptr %57, align 4
  %59 = load ptr, ptr %4, align 8
  %60 = getelementptr inbounds [4 x float], ptr %59, i64 1
  %61 = getelementptr inbounds [4 x float], ptr %60, i64 0, i64 3
  store float %58, ptr %61, align 4
  %62 = getelementptr inbounds nuw %"class.pxrInternal_v0_24__pxrReserved__::GfMatrix4f", ptr %5, i32 0, i32 0
  %63 = call noundef ptr @_ZNK32pxrInternal_v0_24__pxrReserved__12GfMatrixDataIfLi4ELi4EEixEi(ptr noundef nonnull align 4 dereferenceable(64) %62, i32 noundef 2)
  %64 = getelementptr inbounds float, ptr %63, i64 0
  %65 = load float, ptr %64, align 4
  %66 = load ptr, ptr %4, align 8
  %67 = getelementptr inbounds [4 x float], ptr %66, i64 2
  %68 = getelementptr inbounds [4 x float], ptr %67, i64 0, i64 0
  store float %65, ptr %68, align 4
  %69 = getelementptr inbounds nuw %"class.pxrInternal_v0_24__pxrReserved__::GfMatrix4f", ptr %5, i32 0, i32 0
  %70 = call noundef ptr @_ZNK32pxrInternal_v0_24__pxrReserved__12GfMatrixDataIfLi4ELi4EEixEi(ptr noundef nonnull align 4 dereferenceable(64) %69, i32 noundef 2)
  %71 = getelementptr inbounds float, ptr %70, i64 1
  %72 = load float, ptr %71, align 4
  %73 = load ptr, ptr %4, align 8
  %74 = getelementptr inbounds [4 x float], ptr %73, i64 2
  %75 = getelementptr inbounds [4 x float], ptr %74, i64 0, i64 1
  store float %72, ptr %75, align 4
  %76 = getelementptr inbounds nuw %"class.pxrInternal_v0_24__pxrReserved__::GfMatrix4f", ptr %5, i32 0, i32 0
  %77 = call noundef ptr @_ZNK32pxrInternal_v0_24__pxrReserved__12GfMatrixDataIfLi4ELi4EEixEi(ptr noundef nonnull align 4 dereferenceable(64) %76, i32 noundef 2)
  %78 = getelementptr inbounds float, ptr %77, i64 2
  %79 = load float, ptr %78, align 4
  %80 = load ptr, ptr %4, align 8
  %81 = getelementptr inbounds [4 x float], ptr %80, i64 2
  %82 = getelementptr inbounds [4 x float], ptr %81, i64 0, i64 2
  store float %79, ptr %82, align 4
  %83 = getelementptr inbounds nuw %"class.pxrInternal_v0_24__pxrReserved__::GfMatrix4f", ptr %5, i32 0, i32 0
  %84 = call noundef ptr @_ZNK32pxrInternal_v0_24__pxrReserved__12GfMatrixDataIfLi4ELi4EEixEi(ptr noundef nonnull align 4 dereferenceable(64) %83, i32 noundef 2)
  %85 = getelementptr inbounds float, ptr %84, i64 3
  %86 = load float, ptr %85, align 4
  %87 = load ptr, ptr %4, align 8
  %88 = getelementptr inbounds [4 x float], ptr %87, i64 2
  %89 = getelementptr inbounds [4 x float], ptr %88, i64 0, i64 3
  store float %86, ptr %89, align 4
  %90 = getelementptr inbounds nuw %"class.pxrInternal_v0_24__pxrReserved__::GfMatrix4f", ptr %5, i32 0, i32 0
  %91 = call noundef ptr @_ZNK32pxrInternal_v0_24__pxrReserved__12GfMatrixDataIfLi4ELi4EEixEi(ptr noundef nonnull align 4 dereferenceable(64) %90, i32 noundef 3)
  %92 = getelementptr inbounds float, ptr %91, i64 0
  %93 = load float, ptr %92, align 4
  %94 = load ptr, ptr %4, align 8
  %95 = getelementptr inbounds [4 x float], ptr %94, i64 3
  %96 = getelementptr inbounds [4 x float], ptr %95, i64 0, i64 0
  store float %93, ptr %96, align 4
  %97 = getelementptr inbounds nuw %"class.pxrInternal_v0_24__pxrReserved__::GfMatrix4f", ptr %5, i32 0, i32 0
  %98 = call noundef ptr @_ZNK32pxrInternal_v0_24__pxrReserved__12GfMatrixDataIfLi4ELi4EEixEi(ptr noundef nonnull align 4 dereferenceable(64) %97, i32 noundef 3)
  %99 = getelementptr inbounds float, ptr %98, i64 1
  %100 = load float, ptr %99, align 4
  %101 = load ptr, ptr %4, align 8
  %102 = getelementptr inbounds [4 x float], ptr %101, i64 3
  %103 = getelementptr inbounds [4 x float], ptr %102, i64 0, i64 1
  store float %100, ptr %103, align 4
  %104 = getelementptr inbounds nuw %"class.pxrInternal_v0_24__pxrReserved__::GfMatrix4f", ptr %5, i32 0, i32 0
  %105 = call noundef ptr @_ZNK32pxrInternal_v0_24__pxrReserved__12GfMatrixDataIfLi4ELi4EEixEi(ptr noundef nonnull align 4 dereferenceable(64) %104, i32 noundef 3)
  %106 = getelementptr inbounds float, ptr %105, i64 2
  %107 = load float, ptr %106, align 4
  %108 = load ptr, ptr %4, align 8
  %109 = getelementptr inbounds [4 x float], ptr %108, i64 3
  %110 = getelementptr inbounds [4 x float], ptr %109, i64 0, i64 2
  store float %107, ptr %110, align 4
  %111 = getelementptr inbounds nuw %"class.pxrInternal_v0_24__pxrReserved__::GfMatrix4f", ptr %5, i32 0, i32 0
  %112 = call noundef ptr @_ZNK32pxrInternal_v0_24__pxrReserved__12GfMatrixDataIfLi4ELi4EEixEi(ptr noundef nonnull align 4 dereferenceable(64) %111, i32 noundef 3)
  %113 = getelementptr inbounds float, ptr %112, i64 3
  %114 = load float, ptr %113, align 4
  %115 = load ptr, ptr %4, align 8
  %116 = getelementptr inbounds [4 x float], ptr %115, i64 3
  %117 = getelementptr inbounds [4 x float], ptr %116, i64 0, i64 3
  store float %114, ptr %117, align 4
  %118 = load ptr, ptr %4, align 8
  %119 = getelementptr inbounds [4 x float], ptr %118, i64 0
  %120 = getelementptr inbounds [4 x float], ptr %119, i64 0, i64 0
  ret ptr %120
}