; Function Attrs: mustprogress nofree norecurse nosync nounwind willreturn memory(argmem: readwrite) uwtable
define noundef ptr @_ZNK32pxrInternal_v0_24__pxrReserved__10GfMatrix4f3GetEPA4_f(ptr noundef nonnull readonly align 4 captures(none) dereferenceable(64) %0, ptr noundef returned writeonly initializes((0, 64)) %1) local_unnamed_addr #2 align 2 {
  %3 = load float, ptr %0, align 4
  store float %3, ptr %1, align 4
  %4 = getelementptr inbounds nuw i8, ptr %0, i64 4
  %5 = load float, ptr %4, align 4
  %6 = getelementptr inbounds nuw i8, ptr %1, i64 4
  store float %5, ptr %6, align 4
  %7 = getelementptr inbounds nuw i8, ptr %0, i64 8
  %8 = load float, ptr %7, align 4
  %9 = getelementptr inbounds nuw i8, ptr %1, i64 8
  store float %8, ptr %9, align 4
  %10 = getelementptr inbounds nuw i8, ptr %0, i64 12
  %11 = load float, ptr %10, align 4
  %12 = getelementptr inbounds nuw i8, ptr %1, i64 12
  store float %11, ptr %12, align 4
  %13 = getelementptr inbounds nuw i8, ptr %0, i64 16
  %14 = load float, ptr %13, align 4
  %15 = getelementptr inbounds nuw i8, ptr %1, i64 16
  store float %14, ptr %15, align 4
  %16 = getelementptr inbounds nuw i8, ptr %0, i64 20
  %17 = load float, ptr %16, align 4
  %18 = getelementptr inbounds nuw i8, ptr %1, i64 20
  store float %17, ptr %18, align 4
  %19 = getelementptr inbounds nuw i8, ptr %0, i64 24
  %20 = load float, ptr %19, align 4
  %21 = getelementptr inbounds nuw i8, ptr %1, i64 24
  store float %20, ptr %21, align 4
  %22 = getelementptr inbounds nuw i8, ptr %0, i64 28
  %23 = load float, ptr %22, align 4
  %24 = getelementptr inbounds nuw i8, ptr %1, i64 28
  store float %23, ptr %24, align 4
  %25 = getelementptr inbounds nuw i8, ptr %0, i64 32
  %26 = load float, ptr %25, align 4
  %27 = getelementptr inbounds nuw i8, ptr %1, i64 32
  store float %26, ptr %27, align 4
  %28 = getelementptr inbounds nuw i8, ptr %0, i64 36
  %29 = load float, ptr %28, align 4
  %30 = getelementptr inbounds nuw i8, ptr %1, i64 36
  store float %29, ptr %30, align 4
  %31 = getelementptr inbounds nuw i8, ptr %0, i64 40
  %32 = load float, ptr %31, align 4
  %33 = getelementptr inbounds nuw i8, ptr %1, i64 40
  store float %32, ptr %33, align 4
  %34 = getelementptr inbounds nuw i8, ptr %0, i64 44
  %35 = load float, ptr %34, align 4
  %36 = getelementptr inbounds nuw i8, ptr %1, i64 44
  store float %35, ptr %36, align 4
  %37 = getelementptr inbounds nuw i8, ptr %0, i64 48
  %38 = load float, ptr %37, align 4
  %39 = getelementptr inbounds nuw i8, ptr %1, i64 48
  store float %38, ptr %39, align 4
  %40 = getelementptr inbounds nuw i8, ptr %0, i64 52
  %41 = load float, ptr %40, align 4
  %42 = getelementptr inbounds nuw i8, ptr %1, i64 52
  store float %41, ptr %42, align 4
  %43 = getelementptr inbounds nuw i8, ptr %0, i64 56
  %44 = load float, ptr %43, align 4
  %45 = getelementptr inbounds nuw i8, ptr %1, i64 56
  store float %44, ptr %45, align 4
  %46 = getelementptr inbounds nuw i8, ptr %0, i64 60
  %47 = load float, ptr %46, align 4
  %48 = getelementptr inbounds nuw i8, ptr %1, i64 60
  store float %47, ptr %48, align 4
  ret ptr %1
}